target datalayout = "e-m:e-p270:32:32-p271:32:32-p272:64:64-i64:64-i128:128-f80:128-n8:16:32:64-S128"
target triple = "x86_64-unknown-linux-gnu"

%"class.zmq::ws_decoder_t" = type { %"class.zmq::decoder_base_t", [8 x i8], i8, %"class.zmq::msg_t", i8, i64, i8, i64, i32, [4 x i8] }
%"class.zmq::decoder_base_t" = type { %"class.zmq::i_decoder", { i64, i64 }, ptr, i64, %"class.zmq::shared_message_memory_allocator", ptr }
%"class.zmq::i_decoder" = type { ptr }
%"class.zmq::shared_message_memory_allocator" = type { ptr, i64, i64, ptr, i64 }
%"class.zmq::msg_t" = type { %union.anon }
%union.anon = type { %struct.anon }
%struct.anon = type { ptr, [34 x i8], i8, i8, i32, %"union.zmq::msg_t::group_t" }
%"union.zmq::msg_t::group_t" = type { %struct.anon.1 }
%struct.anon.1 = type { i8, ptr }

; Function Attrs: mustprogress nounwind uwtable
define linkonce_odr void @_ZN3zmq14decoder_base_tINS_12ws_decoder_tENS_31shared_message_memory_allocatorEE9next_stepEPvmMS1_FiPKhE(ptr noundef nonnull align 8 dereferenceable(88) %this, ptr noundef %read_pos_, i64 noundef %to_read_, i64 %next_.coerce0, i64 %next_.coerce1) #5 comdat align 2 {
entry:
  %next_ = alloca { i64, i64 }, align 8
  %this.addr = alloca ptr, align 8
  %read_pos_.addr = alloca ptr, align 8
  %to_read_.addr = alloca i64, align 8
  %next_.addr = alloca { i64, i64 }, align 8
  %0 = getelementptr inbounds { i64, i64 }, ptr %next_, i32 0, i32 0
  store i64 %next_.coerce0, ptr %0, align 8
  %1 = getelementptr inbounds { i64, i64 }, ptr %next_, i32 0, i32 1
  store i64 %next_.coerce1, ptr %1, align 8
  %next_1 = load { i64, i64 }, ptr %next_, align 8
  store ptr %this, ptr %this.addr, align 8
  store ptr %read_pos_, ptr %read_pos_.addr, align 8
  store i64 %to_read_, ptr %to_read_.addr, align 8
  store { i64, i64 } %next_1, ptr %next_.addr, align 8
  %this2 = load ptr, ptr %this.addr, align 8
  %2 = load ptr, ptr %read_pos_.addr, align 8
  %_read_pos = getelementptr inbounds %"class.zmq::decoder_base_t", ptr %this2, i32 0, i32 2
  store ptr %2, ptr %_read_pos, align 8
  %3 = load i64, ptr %to_read_.addr, align 8
  %_to_read = getelementptr inbounds %"class.zmq::decoder_base_t", ptr %this2, i32 0, i32 3
  store i64 %3, ptr %_to_read, align 8
  %4 = load { i64, i64 }, ptr %next_.addr, align 8
  %_next = getelementptr inbounds %"class.zmq::decoder_base_t", ptr %this2, i32 0, i32 1
  store { i64, i64 } %4, ptr %_next, align 8
  ret void
}

; Function Attrs: mustprogress uwtable
define noundef i32 @_ZN3zmq12ws_decoder_t21size_first_byte_readyEPKh(ptr noundef nonnull align 8 dereferenceable(208) %this, ptr noundef %read_from_) #0 align 2 {
entry:
  %retval = alloca i32, align 4
  %this.addr = alloca ptr, align 8
  %read_from_.addr = alloca ptr, align 8
  %is_masked = alloca i8, align 1
  %coerce = alloca { i64, i64 }, align 8
  %coerce26 = alloca { i64, i64 }, align 8
  %coerce36 = alloca { i64, i64 }, align 8
  %coerce40 = alloca { i64, i64 }, align 8
  store ptr %this, ptr %this.addr, align 8
  store ptr %read_from_, ptr %read_from_.addr, align 8
  %this1 = load ptr, ptr %this.addr, align 8
  %_tmpbuf = getelementptr inbounds %"class.zmq::ws_decoder_t", ptr %this1, i32 0, i32 1
  %arrayidx = getelementptr inbounds [8 x i8], ptr %_tmpbuf, i64 0, i64 0
  %0 = load i8, ptr %arrayidx, align 8
  %conv = zext i8 %0 to i32
  %and = and i32 %conv, 128
  %cmp = icmp ne i32 %and, 0
  %frombool = zext i1 %cmp to i8
  store i8 %frombool, ptr %is_masked, align 1
  %1 = load i8, ptr %is_masked, align 1
  %tobool = trunc i8 %1 to i1
  %conv2 = zext i1 %tobool to i32
  %_must_mask = getelementptr inbounds %"class.zmq::ws_decoder_t", ptr %this1, i32 0, i32 6
  %2 = load i8, ptr %_must_mask, align 8
  %tobool3 = trunc i8 %2 to i1
  %conv4 = zext i1 %tobool3 to i32
  %cmp5 = icmp ne i32 %conv2, %conv4
  br i1 %cmp5, label %if.then, label %if.end

if.then:                                          ; preds = %entry
  store i32 -1, ptr %retval, align 4
  br label %return

if.end:                                           ; preds = %entry
  %_tmpbuf6 = getelementptr inbounds %"class.zmq::ws_decoder_t", ptr %this1, i32 0, i32 1
  %arrayidx7 = getelementptr inbounds [8 x i8], ptr %_tmpbuf6, i64 0, i64 0
  %3 = load i8, ptr %arrayidx7, align 8
  %conv8 = zext i8 %3 to i32
  %and9 = and i32 %conv8, 127
  %conv10 = sext i32 %and9 to i64
  %_size = getelementptr inbounds %"class.zmq::ws_decoder_t", ptr %this1, i32 0, i32 7
  store i64 %conv10, ptr %_size, align 8
  %_size11 = getelementptr inbounds %"class.zmq::ws_decoder_t", ptr %this1, i32 0, i32 7
  %4 = load i64, ptr %_size11, align 8
  %cmp12 = icmp ult i64 %4, 126
  br i1 %cmp12, label %if.then13, label %if.else30

if.then13:                                        ; preds = %if.end
  %_must_mask14 = getelementptr inbounds %"class.zmq::ws_decoder_t", ptr %this1, i32 0, i32 6
  %5 = load i8, ptr %_must_mask14, align 8
  %tobool15 = trunc i8 %5 to i1
  br i1 %tobool15, label %if.then16, label %if.else

if.then16:                                        ; preds = %if.then13
  %_tmpbuf17 = getelementptr inbounds %"class.zmq::ws_decoder_t", ptr %this1, i32 0, i32 1
  %arraydecay = getelementptr inbounds [8 x i8], ptr %_tmpbuf17, i64 0, i64 0
  store { i64, i64 } { i64 ptrtoint (ptr @_ZN3zmq12ws_decoder_t10mask_readyEPKh to i64), i64 0 }, ptr %coerce, align 8
  %6 = getelementptr inbounds { i64, i64 }, ptr %coerce, i32 0, i32 0
  %7 = load i64, ptr %6, align 8
  %8 = getelementptr inbounds { i64, i64 }, ptr %coerce, i32 0, i32 1
  %9 = load i64, ptr %8, align 8
  call void @_ZN3zmq14decoder_base_tINS_12ws_decoder_tENS_31shared_message_memory_allocatorEE9next_stepEPvmMS1_FiPKhE(ptr noundef nonnull align 8 dereferenceable(88) %this1, ptr noundef %arraydecay, i64 noundef 4, i64 %7, i64 %9)
  br label %if.end29

if.else:                                          ; preds = %if.then13
  %_opcode = getelementptr inbounds %"class.zmq::ws_decoder_t", ptr %this1, i32 0, i32 8
  %10 = load i32, ptr %_opcode, align 8
  %cmp18 = icmp eq i32 %10, 2
  br i1 %cmp18, label %if.then19, label %if.else27

if.then19:                                        ; preds = %if.else
  %_size20 = getelementptr inbounds %"class.zmq::ws_decoder_t", ptr %this1, i32 0, i32 7
  %11 = load i64, ptr %_size20, align 8
  %cmp21 = icmp eq i64 %11, 0
  br i1 %cmp21, label %if.then22, label %if.end23

if.then22:                                        ; preds = %if.then19
  store i32 -1, ptr %retval, align 4
  br label %return

if.end23:                                         ; preds = %if.then19
  %_tmpbuf24 = getelementptr inbounds %"class.zmq::ws_decoder_t", ptr %this1, i32 0, i32 1
  %arraydecay25 = getelementptr inbounds [8 x i8], ptr %_tmpbuf24, i64 0, i64 0
  store { i64, i64 } { i64 ptrtoint (ptr @_ZN3zmq12ws_decoder_t11flags_readyEPKh to i64), i64 0 }, ptr %coerce26, align 8
  %12 = getelementptr inbounds { i64, i64 }, ptr %coerce26, i32 0, i32 0
  %13 = load i64, ptr %12, align 8
  %14 = getelementptr inbounds { i64, i64 }, ptr %coerce26, i32 0, i32 1
  %15 = load i64, ptr %14, align 8
  call void @_ZN3zmq14decoder_base_tINS_12ws_decoder_tENS_31shared_message_memory_allocatorEE9next_stepEPvmMS1_FiPKhE(ptr noundef nonnull align 8 dereferenceable(88) %this1, ptr noundef %arraydecay25, i64 noundef 1, i64 %13, i64 %15)
  br label %if.end28

if.else27:                                        ; preds = %if.else
  %16 = load ptr, ptr %read_from_.addr, align 8
  %call = call noundef i32 @_ZN3zmq12ws_decoder_t10size_readyEPKh(ptr noundef nonnull align 8 dereferenceable(208) %this1, ptr noundef %16)
  store i32 %call, ptr %retval, align 4
  br label %return

if.end28:                                         ; preds = %if.end23
  br label %if.end29

if.end29:                                         ; preds = %if.end28, %if.then16
  br label %if.end42

if.else30:                                        ; preds = %if.end
  %_size31 = getelementptr inbounds %"class.zmq::ws_decoder_t", ptr %this1, i32 0, i32 7
  %17 = load i64, ptr %_size31, align 8
  %cmp32 = icmp eq i64 %17, 126
  br i1 %cmp32, label %if.then33, label %if.else37

if.then33:                                        ; preds = %if.else30
  %_tmpbuf34 = getelementptr inbounds %"class.zmq::ws_decoder_t", ptr %this1, i32 0, i32 1
  %arraydecay35 = getelementptr inbounds [8 x i8], ptr %_tmpbuf34, i64 0, i64 0
  store { i64, i64 } { i64 ptrtoint (ptr @_ZN3zmq12ws_decoder_t16short_size_readyEPKh to i64), i64 0 }, ptr %coerce36, align 8
  %18 = getelementptr inbounds { i64, i64 }, ptr %coerce36, i32 0, i32 0
  %19 = load i64, ptr %18, align 8
  %20 = getelementptr inbounds { i64, i64 }, ptr %coerce36, i32 0, i32 1
  %21 = load i64, ptr %20, align 8
  call void @_ZN3zmq14decoder_base_tINS_12ws_decoder_tENS_31shared_message_memory_allocatorEE9next_stepEPvmMS1_FiPKhE(ptr noundef nonnull align 8 dereferenceable(88) %this1, ptr noundef %arraydecay35, i64 noundef 2, i64 %19, i64 %21)
  br label %if.end41

if.else37:                                        ; preds = %if.else30
  %_tmpbuf38 = getelementptr inbounds %"class.zmq::ws_decoder_t", ptr %this1, i32 0, i32 1
  %arraydecay39 = getelementptr inbounds [8 x i8], ptr %_tmpbuf38, i64 0, i64 0
  store { i64, i64 } { i64 ptrtoint (ptr @_ZN3zmq12ws_decoder_t15long_size_readyEPKh to i64), i64 0 }, ptr %coerce40, align 8
  %22 = getelementptr inbounds { i64, i64 }, ptr %coerce40, i32 0, i32 0
  %23 = load i64, ptr %22, align 8
  %24 = getelementptr inbounds { i64, i64 }, ptr %coerce40, i32 0, i32 1
  %25 = load i64, ptr %24, align 8
  call void @_ZN3zmq14decoder_base_tINS_12ws_decoder_tENS_31shared_message_memory_allocatorEE9next_stepEPvmMS1_FiPKhE(ptr noundef nonnull align 8 dereferenceable(88) %this1, ptr noundef %arraydecay39, i64 noundef 8, i64 %23, i64 %25)
  br label %if.end41

if.end41:                                         ; preds = %if.else37, %if.then33
  br label %if.end42

if.end42:                                         ; preds = %if.end41, %if.end29
  store i32 0, ptr %retval, align 4
  br label %return

return:                                           ; preds = %if.end42, %if.else27, %if.then22, %if.then
  %26 = load i32, ptr %retval, align 4
  ret i32 %26
}