; Function Attrs: mustprogress uwtable
define noundef i32 @_ZN3zmq12ws_decoder_t21size_first_byte_readyEPKh(ptr noundef nonnull align 8 dereferenceable(208) %this, ptr noundef %read_from_) #0 align 2 {
entry:
  %_tmpbuf = getelementptr inbounds i8, ptr %this, i64 88
  %0 = load i8, ptr %_tmpbuf, align 8
  %.lobit = lshr i8 %0, 7
  %_must_mask = getelementptr inbounds i8, ptr %this, i64 184
  %1 = load i8, ptr %_must_mask, align 8
  %2 = and i8 %1, 1
  %cmp5.not = icmp eq i8 %.lobit, %2
  br i1 %cmp5.not, label %if.end, label %return

if.end:                                           ; preds = %entry
  %3 = and i8 %0, 127
  %conv10 = zext nneg i8 %3 to i64
  %_size = getelementptr inbounds i8, ptr %this, i64 192
  store i64 %conv10, ptr %_size, align 8
  %cmp12 = icmp ult i8 %3, 126
  br i1 %cmp12, label %if.then13, label %if.else30

if.then13:                                        ; preds = %if.end
  %tobool15.not = icmp sgt i8 %0, -1
  br i1 %tobool15.not, label %if.else, label %if.then16

if.then16:                                        ; preds = %if.then13
  %_read_pos.i = getelementptr inbounds i8, ptr %this, i64 24
  store ptr %_tmpbuf, ptr %_read_pos.i, align 8
  %_to_read.i = getelementptr inbounds i8, ptr %this, i64 32
  store i64 4, ptr %_to_read.i, align 8
  %_next.i = getelementptr inbounds i8, ptr %this, i64 8
  store i64 ptrtoint (ptr @_ZN3zmq12ws_decoder_t10mask_readyEPKh to i64), ptr %_next.i, align 8
  %_next.repack1.i = getelementptr inbounds i8, ptr %this, i64 16
  store i64 0, ptr %_next.repack1.i, align 8
  br label %return

if.else:                                          ; preds = %if.then13
  %_opcode = getelementptr inbounds i8, ptr %this, i64 200
  %4 = load i32, ptr %_opcode, align 8
  %cmp18 = icmp eq i32 %4, 2
  br i1 %cmp18, label %if.then19, label %if.else27

if.then19:                                        ; preds = %if.else
  %cmp21 = icmp eq i8 %3, 0
  br i1 %cmp21, label %return, label %if.end23

if.end23:                                         ; preds = %if.then19
  %_read_pos.i1 = getelementptr inbounds i8, ptr %this, i64 24
  store ptr %_tmpbuf, ptr %_read_pos.i1, align 8
  %_to_read.i2 = getelementptr inbounds i8, ptr %this, i64 32
  store i64 1, ptr %_to_read.i2, align 8
  %_next.i3 = getelementptr inbounds i8, ptr %this, i64 8
  store i64 ptrtoint (ptr @_ZN3zmq12ws_decoder_t11flags_readyEPKh to i64), ptr %_next.i3, align 8
  %_next.repack1.i4 = getelementptr inbounds i8, ptr %this, i64 16
  store i64 0, ptr %_next.repack1.i4, align 8
  br label %return

if.else27:                                        ; preds = %if.else
  %call = tail call noundef i32 @_ZN3zmq12ws_decoder_t10size_readyEPKh(ptr noundef nonnull align 8 dereferenceable(208) %this, ptr noundef %read_from_), !range !4
  br label %return

if.else30:                                        ; preds = %if.end
  %cmp32 = icmp eq i8 %3, 126
  %_read_pos.i5 = getelementptr inbounds i8, ptr %this, i64 24
  store ptr %_tmpbuf, ptr %_read_pos.i5, align 8
  %_to_read.i6 = getelementptr inbounds i8, ptr %this, i64 32
  %_next.i7 = getelementptr inbounds i8, ptr %this, i64 8
  %_next.repack1.i8 = getelementptr inbounds i8, ptr %this, i64 16
  br i1 %cmp32, label %if.then33, label %if.else37

if.then33:                                        ; preds = %if.else30
  store i64 2, ptr %_to_read.i6, align 8
  store i64 ptrtoint (ptr @_ZN3zmq12ws_decoder_t16short_size_readyEPKh to i64), ptr %_next.i7, align 8
  store i64 0, ptr %_next.repack1.i8, align 8
  br label %return

if.else37:                                        ; preds = %if.else30
  store i64 8, ptr %_to_read.i6, align 8
  store i64 ptrtoint (ptr @_ZN3zmq12ws_decoder_t15long_size_readyEPKh to i64), ptr %_next.i7, align 8
  store i64 0, ptr %_next.repack1.i8, align 8
  br label %return

return:                                           ; preds = %if.end23, %if.then16, %if.else37, %if.then33, %if.then19, %entry, %if.else27
  %retval.0 = phi i32 [ %call, %if.else27 ], [ -1, %entry ], [ -1, %if.then19 ], [ 0, %if.then33 ], [ 0, %if.else37 ], [ 0, %if.then16 ], [ 0, %if.end23 ]
  ret i32 %retval.0
}